; Function Attrs: mustprogress uwtable
define void @_ZN15VoipCallsDialog15invertSelectionEv(ptr nocapture noundef nonnull readonly align 8 dereferenceable(480) %0) local_unnamed_addr #0 align 2 personality ptr @__gxx_personality_v0 {
  %2 = alloca %class.QModelIndex, align 8
  %3 = alloca %class.QModelIndex, align 8
  %4 = alloca %class.QModelIndex, align 8
  %5 = alloca %class.QModelIndex, align 8
  %6 = alloca %class.QModelIndex, align 8
  %7 = alloca %class.QItemSelection, align 8
  %8 = getelementptr inbounds i8, ptr %0, i64 136
  %9 = load ptr, ptr %8, align 8
  %10 = getelementptr inbounds i8, ptr %9, i64 80
  %11 = load ptr, ptr %10, align 8
  call void @_ZNK17QAbstractItemView9rootIndexEv(ptr dead_on_unwind nonnull writable sret(%class.QModelIndex) align 8 %2, ptr noundef nonnull align 8 dereferenceable(40) %11)
  %12 = getelementptr inbounds i8, ptr %0, i64 160
  %13 = load ptr, ptr %12, align 8
  store i32 -1, ptr %4, align 8
  %14 = getelementptr inbounds i8, ptr %4, i64 4
  store i32 -1, ptr %14, align 4
  %15 = getelementptr inbounds i8, ptr %4, i64 8
  call void @llvm.memset.p0.i64(ptr noundef nonnull align 8 dereferenceable(16) %15, i8 0, i64 16, i1 false)
  %16 = load ptr, ptr %13, align 8
  %17 = getelementptr inbounds i8, ptr %16, i64 96
  %18 = load ptr, ptr %17, align 8
  call void %18(ptr dead_on_unwind nonnull writable sret(%class.QModelIndex) align 8 %3, ptr noundef nonnull align 8 dereferenceable(16) %13, i32 noundef 0, i32 noundef 0, ptr noundef nonnull align 8 dereferenceable(24) %4)
  %19 = load ptr, ptr %12, align 8
  %20 = load ptr, ptr %19, align 8
  %21 = getelementptr inbounds i8, ptr %20, i64 120
  %22 = load ptr, ptr %21, align 8
  %23 = call noundef i32 %22(ptr noundef nonnull align 8 dereferenceable(16) %19, ptr noundef nonnull align 8 dereferenceable(24) %2)
  %24 = load ptr, ptr %12, align 8
  %25 = load ptr, ptr %24, align 8
  %26 = getelementptr inbounds i8, ptr %25, i64 128
  %27 = load ptr, ptr %26, align 8
  %28 = call noundef i32 %27(ptr noundef nonnull align 8 dereferenceable(16) %24, ptr noundef nonnull align 8 dereferenceable(24) %2)
  %29 = load ptr, ptr %12, align 8
  %30 = add i32 %23, -1
  %31 = add i32 %28, -1
  store i32 -1, ptr %6, align 8
  %32 = getelementptr inbounds i8, ptr %6, i64 4
  store i32 -1, ptr %32, align 4
  %33 = getelementptr inbounds i8, ptr %6, i64 8
  call void @llvm.memset.p0.i64(ptr noundef nonnull align 8 dereferenceable(16) %33, i8 0, i64 16, i1 false)
  %34 = load ptr, ptr %29, align 8
  %35 = getelementptr inbounds i8, ptr %34, i64 96
  %36 = load ptr, ptr %35, align 8
  call void %36(ptr dead_on_unwind nonnull writable sret(%class.QModelIndex) align 8 %5, ptr noundef nonnull align 8 dereferenceable(16) %29, i32 noundef %30, i32 noundef %31, ptr noundef nonnull align 8 dereferenceable(24) %6)
  call void @_ZN14QItemSelectionC1ERK11QModelIndexS2_(ptr noundef nonnull align 8 dereferenceable(24) %7, ptr noundef nonnull align 8 dereferenceable(24) %3, ptr noundef nonnull align 8 dereferenceable(24) %5)
  %37 = load ptr, ptr %8, align 8
  %38 = getelementptr inbounds i8, ptr %37, i64 80
  %39 = load ptr, ptr %38, align 8
  %40 = invoke noundef ptr @_ZNK17QAbstractItemView14selectionModelEv(ptr noundef nonnull align 8 dereferenceable(40) %39)
          to label %41 unwind label %57

41:                                               ; preds = %1
  %42 = load ptr, ptr %40, align 8
  %43 = getelementptr inbounds i8, ptr %42, i64 112
  %44 = load ptr, ptr %43, align 8
  invoke void %44(ptr noundef nonnull align 8 dereferenceable(16) %40, ptr noundef nonnull align 8 dereferenceable(24) %7, i32 8)
          to label %45 unwind label %57

45:                                               ; preds = %41
  %46 = load ptr, ptr %7, align 8
  %.not.i.i.i.i = icmp eq ptr %46, null
  br i1 %.not.i.i.i.i, label %_ZN14QItemSelectionD2Ev.exit, label %_ZN17QArrayDataPointerI19QItemSelectionRangeE5derefEv.exit.i.i.i

_ZN17QArrayDataPointerI19QItemSelectionRangeE5derefEv.exit.i.i.i: ; preds = %45
  %47 = atomicrmw sub ptr %46, i32 1 seq_cst, align 4
  %.not.i.i.i = icmp eq i32 %47, 1
  br i1 %.not.i.i.i, label %48, label %_ZN14QItemSelectionD2Ev.exit

48:                                               ; preds = %_ZN17QArrayDataPointerI19QItemSelectionRangeE5derefEv.exit.i.i.i
  %49 = getelementptr inbounds i8, ptr %7, i64 8
  %50 = load ptr, ptr %49, align 8
  %51 = getelementptr inbounds i8, ptr %7, i64 16
  %52 = load i64, ptr %51, align 8
  %53 = getelementptr %class.QItemSelectionRange, ptr %50, i64 %52
  %.idx.mask.i.i.i.i = and i64 %52, 1152921504606846975
  %.not4.i.i.i.i.i.i.i = icmp eq i64 %.idx.mask.i.i.i.i, 0
  br i1 %.not4.i.i.i.i.i.i.i, label %_ZN9QtPrivate16QGenericArrayOpsI19QItemSelectionRangeE10destroyAllEv.exit.i.i.i, label %.lr.ph.i.i.i.i.i.i.i

.lr.ph.i.i.i.i.i.i.i:                             ; preds = %48, %.lr.ph.i.i.i.i.i.i.i
  %.05.i.i.i.i.i.i.i = phi ptr [ %55, %.lr.ph.i.i.i.i.i.i.i ], [ %50, %48 ]
  %54 = getelementptr inbounds i8, ptr %.05.i.i.i.i.i.i.i, i64 8
  call void @_ZN21QPersistentModelIndexD1Ev(ptr noundef nonnull align 8 dereferenceable(8) %54) #19
  call void @_ZN21QPersistentModelIndexD1Ev(ptr noundef nonnull align 8 dereferenceable(8) %.05.i.i.i.i.i.i.i) #19
  %55 = getelementptr i8, ptr %.05.i.i.i.i.i.i.i, i64 16
  %.not.i.i.i.i.i.i.i = icmp eq ptr %55, %53
  br i1 %.not.i.i.i.i.i.i.i, label %_ZN9QtPrivate16QGenericArrayOpsI19QItemSelectionRangeE10destroyAllEv.exit.i.i.i, label %.lr.ph.i.i.i.i.i.i.i, !llvm.loop !62

_ZN9QtPrivate16QGenericArrayOpsI19QItemSelectionRangeE10destroyAllEv.exit.i.i.i: ; preds = %.lr.ph.i.i.i.i.i.i.i, %48
  %56 = load ptr, ptr %7, align 8
  call void @_ZN10QArrayData10deallocateEPS_xx(ptr noundef %56, i64 noundef 16, i64 noundef 8) #19
  br label %_ZN14QItemSelectionD2Ev.exit

_ZN14QItemSelectionD2Ev.exit:                     ; preds = %45, %_ZN17QArrayDataPointerI19QItemSelectionRangeE5derefEv.exit.i.i.i, %_ZN9QtPrivate16QGenericArrayOpsI19QItemSelectionRangeE10destroyAllEv.exit.i.i.i
  ret void

57:                                               ; preds = %41, %1
  %58 = landingpad { ptr, i32 }
          cleanup
  call void @_ZN14QItemSelectionD2Ev(ptr noundef nonnull align 8 dereferenceable(24) %7) #19
  resume { ptr, i32 } %58
}